; Function Attrs: nounwind uwtable
define internal noundef zeroext i1 @php_auto_globals_create_post(ptr noundef %0) #0 {
  %2 = load ptr, ptr getelementptr inbounds (%struct._php_core_globals, ptr @core_globals, i64 0, i32 33), align 8
  %.not = icmp eq ptr %2, null
  br i1 %.not, label %17, label %3

3:                                                ; preds = %1
  %4 = tail call ptr @strchr(ptr noundef nonnull dereferenceable(1) %2, i32 noundef 80) #15
  %.not16 = icmp eq ptr %4, null
  br i1 %.not16, label %5, label %10

5:                                                ; preds = %3
  %6 = tail call ptr @strchr(ptr noundef nonnull dereferenceable(1) %2, i32 noundef 112) #15
  %7 = icmp eq ptr %6, null
  %8 = load i8, ptr getelementptr inbounds (%struct._sapi_globals_struct, ptr @sapi_globals, i64 0, i32 5), align 1
  %9 = icmp ne i8 %8, 0
  %or.cond = select i1 %7, i1 true, i1 %9
  br i1 %or.cond, label %17, label %11

10:                                               ; preds = %3
  %.old = load i8, ptr getelementptr inbounds (%struct._sapi_globals_struct, ptr @sapi_globals, i64 0, i32 5), align 1
  %.old1.not = icmp eq i8 %.old, 0
  br i1 %.old1.not, label %11, label %17

11:                                               ; preds = %5, %10
  %12 = load ptr, ptr getelementptr inbounds (%struct._sapi_globals_struct, ptr @sapi_globals, i64 0, i32 1), align 8
  %.not17 = icmp eq ptr %12, null
  br i1 %.not17, label %17, label %13

13:                                               ; preds = %11
  %14 = tail call i32 @strcasecmp(ptr noundef nonnull %12, ptr noundef nonnull @.str.15) #15
  %.not18 = icmp eq i32 %14, 0
  br i1 %.not18, label %15, label %17

15:                                               ; preds = %13
  %16 = load ptr, ptr getelementptr inbounds (%struct._sapi_module_struct, ptr @sapi_module, i64 0, i32 22), align 8
  tail call void %16(i32 noundef 0, ptr noundef null, ptr noundef null) #17
  br label %28

17:                                               ; preds = %13, %11, %10, %5, %1
  %18 = load i8, ptr getelementptr inbounds (%struct.anon.0, ptr getelementptr inbounds (%struct._php_core_globals, ptr @core_globals, i64 0, i32 39, i64 0, i32 1), i64 0, i32 1), align 1
  %.not19 = icmp eq i8 %18, 0
  br i1 %.not19, label %26, label %19

19:                                               ; preds = %17
  %20 = load ptr, ptr getelementptr inbounds (%struct._php_core_globals, ptr @core_globals, i64 0, i32 39), align 8
  %21 = load i32, ptr %20, align 4
  %22 = icmp ne i32 %21, 0
  tail call void @llvm.assume(i1 %22)
  %23 = add i32 %21, -1
  store i32 %23, ptr %20, align 4
  %.not20 = icmp eq i32 %23, 0
  br i1 %.not20, label %24, label %26

24:                                               ; preds = %19
  %25 = load ptr, ptr getelementptr inbounds (%struct._php_core_globals, ptr @core_globals, i64 0, i32 39), align 8
  tail call void @rc_dtor_func(ptr noundef %25) #17
  br label %26

26:                                               ; preds = %17, %19, %24
  %27 = tail call ptr @_zend_new_array_0() #17
  store ptr %27, ptr getelementptr inbounds (%struct._php_core_globals, ptr @core_globals, i64 0, i32 39), align 8
  store i32 775, ptr getelementptr inbounds (%struct._php_core_globals, ptr @core_globals, i64 0, i32 39, i64 0, i32 1), align 8
  br label %28

28:                                               ; preds = %26, %15
  %29 = tail call ptr @zend_hash_update(ptr noundef nonnull getelementptr inbounds (%struct._zend_executor_globals, ptr @executor_globals, i64 0, i32 5), ptr noundef %0, ptr noundef nonnull getelementptr inbounds (%struct._php_core_globals, ptr @core_globals, i64 0, i32 39)) #17
  %30 = load i8, ptr getelementptr inbounds (%struct.anon.0, ptr getelementptr inbounds (%struct._php_core_globals, ptr @core_globals, i64 0, i32 39, i64 0, i32 1), i64 0, i32 1), align 1
  %31 = icmp ne i8 %30, 0
  tail call void @llvm.assume(i1 %31)
  %32 = load ptr, ptr getelementptr inbounds (%struct._php_core_globals, ptr @core_globals, i64 0, i32 39), align 8
  %33 = load i32, ptr %32, align 4
  %34 = add i32 %33, 1
  store i32 %34, ptr %32, align 4
  ret i1 false
}